target datalayout = "e-m:e-p270:32:32-p271:32:32-p272:64:64-i64:64-i128:128-f80:128-n8:16:32:64-S128"
target triple = "x86_64-pc-linux-gnu"

%struct.darktable_t = type { %struct.dt_codepath_t, i32, i32, ptr, ptr, ptr, ptr, ptr, ptr, ptr, ptr, ptr, ptr, ptr, ptr, ptr, ptr, ptr, ptr, ptr, ptr, ptr, ptr, ptr, ptr, ptr, ptr, ptr, ptr, ptr, [64 x %struct.dt_pthread_mutex_t], %struct.dt_pthread_mutex_t, %struct.dt_pthread_mutex_t, %struct.dt_pthread_mutex_t, %struct.dt_pthread_mutex_t, %struct.dt_pthread_mutex_t, ptr, ptr, ptr, ptr, ptr, ptr, ptr, ptr, ptr, ptr, ptr, ptr, ptr, %struct.dt_lua_state_t, ptr, double, ptr, i32, [47 x i32], i32, i32, ptr, ptr, %struct.dt_sys_resources_t, %struct.dt_backthumb_t, %struct.dt_gimp_t }
%struct.dt_codepath_t = type { i8, [3 x i8] }
%struct.dt_pthread_mutex_t = type { %union.pthread_mutex_t }
%union.pthread_mutex_t = type { %struct.__pthread_mutex_s }
%struct.__pthread_mutex_s = type { i32, i32, i32, i32, i32, i16, i16, %struct.__pthread_internal_list }
%struct.__pthread_internal_list = type { ptr, ptr }
%struct.dt_lua_state_t = type { i32 }
%struct.dt_sys_resources_t = type { i64, i64, ptr, ptr, i32 }
%struct.dt_backthumb_t = type { double, double, i32, i32, i32, i32 }
%struct.dt_gimp_t = type { i32, ptr, ptr, i32, i32 }

@.str.24 = private unnamed_addr constant [3 x i8] c"rb\00", align 1
@.str.25 = private unnamed_addr constant [3 x i8] c"wb\00", align 1
@darktable = external global %struct.darktable_t, align 8
@.str.26 = private unnamed_addr constant [64 x i8] c"[dt_copy_file] failure to allocate memory for copying file '%s'\00", align 1
@.str.27 = private unnamed_addr constant [51 x i8] c"[dt_copy_file] error reading file '%s' for copying\00", align 1
@.str.28 = private unnamed_addr constant [54 x i8] c"[dt_copy_file] error writing file '%s' during copying\00", align 1

; Function Attrs: nounwind uwtable
define void @dt_copy_file(ptr noundef %0, ptr noundef %1) #0 {
  %3 = alloca ptr, align 8
  %4 = alloca ptr, align 8
  %5 = alloca ptr, align 8
  %6 = alloca ptr, align 8
  %7 = alloca ptr, align 8
  %8 = alloca i64, align 8
  %9 = alloca i32, align 4
  store ptr %0, ptr %3, align 8, !tbaa !6
  store ptr %1, ptr %4, align 8, !tbaa !6
  call void @llvm.lifetime.start.p0(i64 8, ptr %5) #18
  store ptr null, ptr %5, align 8, !tbaa !6
  call void @llvm.lifetime.start.p0(i64 8, ptr %6) #18
  %10 = load ptr, ptr %3, align 8, !tbaa !6
  %11 = call noalias ptr @fopen(ptr noundef %10, ptr noundef @.str.24)
  store ptr %11, ptr %6, align 8, !tbaa !103
  call void @llvm.lifetime.start.p0(i64 8, ptr %7) #18
  %12 = load ptr, ptr %4, align 8, !tbaa !6
  %13 = call noalias ptr @fopen(ptr noundef %12, ptr noundef @.str.25)
  store ptr %13, ptr %7, align 8, !tbaa !103
  %14 = load ptr, ptr %6, align 8, !tbaa !103
  %15 = icmp ne ptr %14, null
  br i1 %15, label %16, label %80

16:                                               ; preds = %2
  %17 = load ptr, ptr %7, align 8, !tbaa !103
  %18 = icmp ne ptr %17, null
  br i1 %18, label %19, label %80

19:                                               ; preds = %16
  %20 = load ptr, ptr %6, align 8, !tbaa !103
  %21 = call i32 @fseek(ptr noundef %20, i64 noundef 0, i32 noundef 2)
  call void @llvm.lifetime.start.p0(i64 8, ptr %8) #18
  %22 = load ptr, ptr %6, align 8, !tbaa !103
  %23 = call i64 @ftell(ptr noundef %22)
  store i64 %23, ptr %8, align 8, !tbaa !13
  %24 = load ptr, ptr %6, align 8, !tbaa !103
  call void @rewind(ptr noundef %24)
  %25 = load i64, ptr %8, align 8, !tbaa !13
  %26 = call noalias ptr @g_try_malloc_n(i64 noundef %25, i64 noundef 1) #20
  store ptr %26, ptr %5, align 8, !tbaa !6
  %27 = load ptr, ptr %5, align 8, !tbaa !6
  %28 = icmp eq ptr %27, null
  br i1 %28, label %29, label %40

29:                                               ; preds = %19
  br label %30

30:                                               ; preds = %29
  %31 = load i32, ptr getelementptr inbounds nuw (%struct.darktable_t, ptr @darktable, i32 0, i32 2), align 8, !tbaa !96
  %32 = xor i32 %31, -1
  %33 = and i32 0, %32
  %34 = icmp ne i32 %33, 0
  br i1 %34, label %37, label %35

35:                                               ; preds = %30
  %36 = load ptr, ptr %3, align 8, !tbaa !6
  call void (ptr, ...) @dt_print_ext(ptr noundef @.str.26, ptr noundef %36)
  br label %37

37:                                               ; preds = %35, %30
  br label %38

38:                                               ; preds = %37
  br label %39

39:                                               ; preds = %38
  store i32 4, ptr %9, align 4
  br label %77

40:                                               ; preds = %19
  %41 = load ptr, ptr %5, align 8, !tbaa !6
  %42 = load i64, ptr %8, align 8, !tbaa !13
  %43 = load ptr, ptr %6, align 8, !tbaa !103
  %44 = call i64 @fread(ptr noundef %41, i64 noundef 1, i64 noundef %42, ptr noundef %43)
  %45 = load i64, ptr %8, align 8, !tbaa !13
  %46 = icmp ne i64 %44, %45
  br i1 %46, label %47, label %58

47:                                               ; preds = %40
  br label %48

48:                                               ; preds = %47
  %49 = load i32, ptr getelementptr inbounds nuw (%struct.darktable_t, ptr @darktable, i32 0, i32 2), align 8, !tbaa !96
  %50 = xor i32 %49, -1
  %51 = and i32 0, %50
  %52 = icmp ne i32 %51, 0
  br i1 %52, label %55, label %53

53:                                               ; preds = %48
  %54 = load ptr, ptr %3, align 8, !tbaa !6
  call void (ptr, ...) @dt_print_ext(ptr noundef @.str.27, ptr noundef %54)
  br label %55

55:                                               ; preds = %53, %48
  br label %56

56:                                               ; preds = %55
  br label %57

57:                                               ; preds = %56
  store i32 4, ptr %9, align 4
  br label %77

58:                                               ; preds = %40
  %59 = load ptr, ptr %5, align 8, !tbaa !6
  %60 = load i64, ptr %8, align 8, !tbaa !13
  %61 = load ptr, ptr %7, align 8, !tbaa !103
  %62 = call i64 @fwrite(ptr noundef %59, i64 noundef 1, i64 noundef %60, ptr noundef %61)
  %63 = load i64, ptr %8, align 8, !tbaa !13
  %64 = icmp ne i64 %62, %63
  br i1 %64, label %65, label %76

65:                                               ; preds = %58
  br label %66

66:                                               ; preds = %65
  %67 = load i32, ptr getelementptr inbounds nuw (%struct.darktable_t, ptr @darktable, i32 0, i32 2), align 8, !tbaa !96
  %68 = xor i32 %67, -1
  %69 = and i32 0, %68
  %70 = icmp ne i32 %69, 0
  br i1 %70, label %73, label %71

71:                                               ; preds = %66
  %72 = load ptr, ptr %4, align 8, !tbaa !6
  call void (ptr, ...) @dt_print_ext(ptr noundef @.str.28, ptr noundef %72)
  br label %73

73:                                               ; preds = %71, %66
  br label %74

74:                                               ; preds = %73
  br label %75

75:                                               ; preds = %74
  store i32 4, ptr %9, align 4
  br label %77

76:                                               ; preds = %58
  store i32 0, ptr %9, align 4
  br label %77

77:                                               ; preds = %75, %57, %39, %76
  call void @llvm.lifetime.end.p0(i64 8, ptr %8) #18
  %78 = load i32, ptr %9, align 4
  switch i32 %78, label %95 [
    i32 0, label %79
    i32 4, label %81
  ]

79:                                               ; preds = %77
  br label %80

80:                                               ; preds = %79, %16, %2
  br label %81

81:                                               ; preds = %80, %77
  %82 = load ptr, ptr %7, align 8, !tbaa !103
  %83 = icmp ne ptr %82, null
  br i1 %83, label %84, label %87

84:                                               ; preds = %81
  %85 = load ptr, ptr %7, align 8, !tbaa !103
  %86 = call i32 @fclose(ptr noundef %85)
  br label %87

87:                                               ; preds = %84, %81
  %88 = load ptr, ptr %6, align 8, !tbaa !103
  %89 = icmp ne ptr %88, null
  br i1 %89, label %90, label %93

90:                                               ; preds = %87
  %91 = load ptr, ptr %6, align 8, !tbaa !103
  %92 = call i32 @fclose(ptr noundef %91)
  br label %93

93:                                               ; preds = %90, %87
  %94 = load ptr, ptr %5, align 8, !tbaa !6
  call void @g_free(ptr noundef %94)
  call void @llvm.lifetime.end.p0(i64 8, ptr %7) #18
  call void @llvm.lifetime.end.p0(i64 8, ptr %6) #18
  call void @llvm.lifetime.end.p0(i64 8, ptr %5) #18
  ret void

95:                                               ; preds = %77
  unreachable
}