; Function Attrs: nounwind uwtable
define void @dt_copy_file(ptr noundef %0, ptr noundef %1) local_unnamed_addr #0 {
  %3 = tail call noalias ptr @fopen(ptr noundef %0, ptr noundef nonnull @.str.24)
  %4 = tail call noalias ptr @fopen(ptr noundef %1, ptr noundef nonnull @.str.25)
  %5 = icmp ne ptr %3, null
  %6 = icmp ne ptr %4, null
  %or.cond = and i1 %5, %6
  br i1 %or.cond, label %7, label %19

7:                                                ; preds = %2
  %8 = tail call i32 @fseek(ptr noundef nonnull %3, i64 noundef 0, i32 noundef 2)
  %9 = tail call i64 @ftell(ptr noundef nonnull %3)
  tail call void @rewind(ptr noundef nonnull %3)
  %10 = tail call noalias ptr @g_try_malloc_n(i64 noundef %9, i64 noundef 1) #29
  %11 = icmp eq ptr %10, null
  br i1 %11, label %12, label %13

12:                                               ; preds = %7
  tail call void (ptr, ...) @dt_print_ext(ptr noundef nonnull @.str.26, ptr noundef %0) #27
  br label %.thread

13:                                               ; preds = %7
  %14 = tail call i64 @fread(ptr noundef nonnull %10, i64 noundef 1, i64 noundef %9, ptr noundef nonnull %3)
  %.not = icmp eq i64 %14, %9
  br i1 %.not, label %16, label %15

15:                                               ; preds = %13
  tail call void (ptr, ...) @dt_print_ext(ptr noundef nonnull @.str.27, ptr noundef %0) #27
  br label %.thread

16:                                               ; preds = %13
  %17 = tail call i64 @fwrite(ptr noundef nonnull %10, i64 noundef 1, i64 noundef %9, ptr noundef nonnull %4)
  %.not30 = icmp eq i64 %17, %9
  br i1 %.not30, label %.thread, label %18

18:                                               ; preds = %16
  tail call void (ptr, ...) @dt_print_ext(ptr noundef nonnull @.str.28, ptr noundef %1) #27
  br label %.thread

19:                                               ; preds = %2
  br i1 %6, label %.thread, label %21

.thread:                                          ; preds = %16, %18, %15, %12, %19
  %.033 = phi ptr [ null, %19 ], [ null, %12 ], [ %10, %15 ], [ %10, %18 ], [ %10, %16 ]
  %20 = tail call i32 @fclose(ptr noundef nonnull %4)
  br label %21

21:                                               ; preds = %.thread, %19
  %.032 = phi ptr [ %.033, %.thread ], [ null, %19 ]
  br i1 %5, label %22, label %24

22:                                               ; preds = %21
  %23 = tail call i32 @fclose(ptr noundef nonnull %3)
  br label %24

24:                                               ; preds = %22, %21
  tail call void @g_free(ptr noundef %.032) #27
  ret void
}